; Function Attrs: mustprogress uwtable
define void @_ZN3nix12StoreCommand11createStoreEv(ptr dead_on_unwind noalias writable sret(%"class.nix::ref.92") align 8 %0, ptr nocapture nonnull readnone align 8 %1) unnamed_addr #4 align 2 personality ptr @__gxx_personality_v0 {
  %3 = alloca %"class.std::map.93", align 8
  %4 = getelementptr inbounds i8, ptr %3, i64 8
  %5 = getelementptr inbounds i8, ptr %3, i64 24
  call void @llvm.memset.p0.i64(ptr noundef nonnull align 8 dereferenceable(24) %3, i8 0, i64 24, i1 false)
  store ptr %4, ptr %5, align 8
  %6 = getelementptr inbounds i8, ptr %3, i64 32
  store ptr %4, ptr %6, align 8
  %7 = getelementptr inbounds i8, ptr %3, i64 40
  store i64 0, ptr %7, align 8
  invoke void @_ZN3nix9openStoreERKNSt7__cxx1112basic_stringIcSt11char_traitsIcESaIcEEERKSt3mapIS5_S5_St4lessIS5_ESaISt4pairIS6_S5_EEE(ptr dead_on_unwind writable sret(%"class.nix::ref.92") align 8 %0, ptr noundef nonnull align 8 dereferenceable(32) getelementptr inbounds (%"class.nix::Settings", ptr @_ZN3nix8settingsE, i64 0, i32 11, i32 0, i32 1, i32 0, i32 0), ptr noundef nonnull align 8 dereferenceable(48) %3)
          to label %8 unwind label %14

8:                                                ; preds = %2
  %9 = getelementptr inbounds i8, ptr %3, i64 16
  %10 = load ptr, ptr %9, align 8
  invoke void @_ZNSt8_Rb_treeINSt7__cxx1112basic_stringIcSt11char_traitsIcESaIcEEESt4pairIKS5_S5_ESt10_Select1stIS8_ESt4lessIS5_ESaIS8_EE8_M_eraseEPSt13_Rb_tree_nodeIS8_E(ptr noundef nonnull align 8 dereferenceable(48) %3, ptr noundef %10)
          to label %_ZNSt3mapINSt7__cxx1112basic_stringIcSt11char_traitsIcESaIcEEES5_St4lessIS5_ESaISt4pairIKS5_S5_EEED2Ev.exit unwind label %11

11:                                               ; preds = %8
  %12 = landingpad { ptr, i32 }
          catch ptr null
  %13 = extractvalue { ptr, i32 } %12, 0
  call void @__clang_call_terminate(ptr %13) #36
  unreachable

_ZNSt3mapINSt7__cxx1112basic_stringIcSt11char_traitsIcESaIcEEES5_St4lessIS5_ESaISt4pairIKS5_S5_EEED2Ev.exit: ; preds = %8
  ret void

14:                                               ; preds = %2
  %15 = landingpad { ptr, i32 }
          cleanup
  call void @_ZNSt3mapINSt7__cxx1112basic_stringIcSt11char_traitsIcESaIcEEES5_St4lessIS5_ESaISt4pairIKS5_S5_EEED2Ev(ptr noundef nonnull align 8 dereferenceable(48) %3) #31
  resume { ptr, i32 } %15
}